; Function Attrs: mustprogress nounwind uwtable
define dso_local noundef zeroext i1 @_ZNK4llvm6detail16SlowDynamicAPIntneERKS1_(ptr noundef nonnull align 8 dereferenceable(16) %0, ptr noundef nonnull align 8 dereferenceable(16) %1) local_unnamed_addr #1 align 2 {
  %3 = alloca %"class.llvm::APInt", align 8
  %4 = alloca %"class.llvm::APInt", align 8
  %5 = getelementptr inbounds i8, ptr %0, i64 8
  %.val = load i32, ptr %5, align 8
  %6 = getelementptr inbounds i8, ptr %1, i64 8
  %.val4 = load i32, ptr %6, align 8
  %.sroa.speculated.i = tail call noundef i32 @llvm.umax.i32(i32 %.val, i32 %.val4)
  call void @_ZNK4llvm5APInt4sextEj(ptr dead_on_unwind nonnull writable sret(%"class.llvm::APInt") align 8 %3, ptr noundef nonnull align 8 dereferenceable(12) %0, i32 noundef %.sroa.speculated.i) #9
  call void @_ZNK4llvm5APInt4sextEj(ptr dead_on_unwind nonnull writable sret(%"class.llvm::APInt") align 8 %4, ptr noundef nonnull align 8 dereferenceable(12) %1, i32 noundef %.sroa.speculated.i) #9
  %7 = getelementptr inbounds nuw i8, ptr %3, i64 8
  %8 = load i32, ptr %7, align 8
  %9 = icmp ult i32 %8, 65
  br i1 %9, label %10, label %14

10:                                               ; preds = %2
  %11 = load i64, ptr %3, align 8
  %12 = load i64, ptr %4, align 8
  %13 = icmp eq i64 %11, %12
  br label %_ZNK4llvm5APIntneERKS0_.exit

14:                                               ; preds = %2
  %15 = call noundef zeroext i1 @_ZNK4llvm5APInt13equalSlowCaseERKS0_(ptr noundef nonnull align 8 dereferenceable(12) %3, ptr noundef nonnull align 8 dereferenceable(12) %4) #11
  br label %_ZNK4llvm5APIntneERKS0_.exit

_ZNK4llvm5APIntneERKS0_.exit:                     ; preds = %10, %14
  %.0.i.i = phi i1 [ %13, %10 ], [ %15, %14 ]
  %16 = getelementptr inbounds nuw i8, ptr %4, i64 8
  %17 = load i32, ptr %16, align 8
  %18 = icmp ugt i32 %17, 64
  br i1 %18, label %19, label %_ZN4llvm5APIntD2Ev.exit

19:                                               ; preds = %_ZNK4llvm5APIntneERKS0_.exit
  %20 = load ptr, ptr %4, align 8
  %21 = icmp eq ptr %20, null
  br i1 %21, label %_ZN4llvm5APIntD2Ev.exit, label %22

22:                                               ; preds = %19
  call void @_ZdaPv(ptr noundef nonnull %20) #10
  %.pre = load i32, ptr %7, align 8
  br label %_ZN4llvm5APIntD2Ev.exit

_ZN4llvm5APIntD2Ev.exit:                          ; preds = %_ZNK4llvm5APIntneERKS0_.exit, %19, %22
  %23 = phi i32 [ %8, %_ZNK4llvm5APIntneERKS0_.exit ], [ %8, %19 ], [ %.pre, %22 ]
  %24 = icmp ugt i32 %23, 64
  br i1 %24, label %25, label %_ZN4llvm5APIntD2Ev.exit5

25:                                               ; preds = %_ZN4llvm5APIntD2Ev.exit
  %26 = load ptr, ptr %3, align 8
  %27 = icmp eq ptr %26, null
  br i1 %27, label %_ZN4llvm5APIntD2Ev.exit5, label %28

28:                                               ; preds = %25
  call void @_ZdaPv(ptr noundef nonnull %26) #10
  br label %_ZN4llvm5APIntD2Ev.exit5

_ZN4llvm5APIntD2Ev.exit5:                         ; preds = %_ZN4llvm5APIntD2Ev.exit, %25, %28
  %29 = xor i1 %.0.i.i, true
  ret i1 %29
}